target datalayout = "e-m:e-p270:32:32-p271:32:32-p272:64:64-i64:64-i128:128-f80:128-n8:16:32:64-S128"
target triple = "x86_64-unknown-linux-gnu"

%"class.sat::literal" = type { i32 }
%"class.nlsat::solver" = type { ptr, ptr }
%"struct.nlsat::solver::imp" = type { ptr, ptr, ptr, ptr, i8, ptr, ptr, %"class.polynomial::cache", ptr, %class.dependency_manager, %"class.nlsat::assignment", %"class.nlsat::evaluator", ptr, %class.chashtable, %class.chashtable.7, %class.svector.8, %class.ref_vector, %class.ref_vector, %class.id_gen, %class.ptr_vector.12, %class.ptr_vector.12, %class.ptr_vector.12, i32, %class.ptr_vector.14, %class.svector.16, %class.svector.8, %class.svector.18, %class.vector.20, %class.svector.5, %class.id_gen, %class.svector.5, %class.vector.20, %class.ptr_vector.21, %class.ptr_vector.14, %class.svector.8, %class.svector.8, %"struct.nlsat::solver::imp::perm_display_var_proc", ptr, %"class.nlsat::explain", i32, i32, i32, %class.svector.23, %"class.algebraic_numbers::anum", i64, i32, i8, i8, i8, i8, i32, i8, i8, i8, i32, i32, i32, i32, i32, i32, i32, %class.svector.5, %class.svector.25, %class.ptr_vector.12, i32, %class.svector.27, i32, %"class.nlsat::scoped_literal_vector", %"class.nlsat::scoped_literal_vector", %class.obj_ref, %class.svector.8, %class.svector.8, %class.svector.16 }
%"class.polynomial::cache" = type { ptr }
%class.dependency_manager = type { ptr, ptr, %class.ptr_vector.1 }
%class.ptr_vector.1 = type { %class.vector.2 }
%class.vector.2 = type { ptr }
%"class.nlsat::assignment" = type { %"class.polynomial::var2value", %class._scoped_numeral_vector, %class.svector.5 }
%"class.polynomial::var2value" = type { ptr }
%class._scoped_numeral_vector = type { %class.svector.3, ptr }
%class.svector.3 = type { %class.vector.4 }
%class.vector.4 = type { ptr }
%"class.nlsat::evaluator" = type { ptr }
%class.chashtable = type { ptr, i32, i32, i32, i32, i32, i32, i32, ptr, ptr, ptr }
%class.chashtable.7 = type { ptr, i32, i32, i32, i32, i32, i32, i32, ptr, ptr, ptr }
%class.ref_vector = type { %class.ref_vector_core }
%class.ref_vector_core = type { %class.ref_manager_wrapper, %class.ptr_vector.10 }
%class.ref_manager_wrapper = type { ptr }
%class.ptr_vector.10 = type { %class.vector.11 }
%class.vector.11 = type { ptr }
%class.svector.18 = type { %class.vector.19 }
%class.vector.19 = type { ptr }
%class.id_gen = type { i32, %class.svector.8 }
%class.vector.20 = type { ptr }
%class.ptr_vector.21 = type { %class.vector.22 }
%class.vector.22 = type { ptr }
%class.ptr_vector.14 = type { %class.vector.15 }
%class.vector.15 = type { ptr }
%"struct.nlsat::solver::imp::perm_display_var_proc" = type { %"struct.polynomial::display_var_proc", ptr, %"struct.polynomial::display_var_proc", ptr }
%"struct.polynomial::display_var_proc" = type { ptr }
%"class.nlsat::explain" = type { ptr }
%class.svector.23 = type { %class.vector.24 }
%class.vector.24 = type { ptr }
%"class.algebraic_numbers::anum" = type { ptr }
%class.svector.5 = type { %class.vector.6 }
%class.vector.6 = type { ptr }
%class.svector.25 = type { %class.vector.26 }
%class.vector.26 = type { ptr }
%class.ptr_vector.12 = type { %class.vector.13 }
%class.vector.13 = type { ptr }
%class.svector.27 = type { %class.vector.28 }
%class.vector.28 = type { ptr }
%"class.nlsat::scoped_literal_vector" = type { ptr, %class.svector.25 }
%class.obj_ref = type { ptr, ptr }
%class.svector.8 = type { %class.vector.9 }
%class.vector.9 = type { ptr }
%class.svector.16 = type { %class.vector.17 }
%class.vector.17 = type { ptr }

@.str.6 = private unnamed_addr constant [3 x i8] c"  \00", align 1

; Function Attrs: mustprogress uwtable
define linkonce_odr hidden noundef nonnull align 8 dereferenceable(8) ptr @_ZNK5nlsat6solver3imp12display_smt2ERSoN3sat7literalE(ptr noundef nonnull align 8 dereferenceable(728) %this, ptr noundef nonnull align 8 dereferenceable(8) %out, i32 %l.coerce) #5 comdat align 2 {
entry:
  %l = alloca %"class.sat::literal", align 4
  %this.addr = alloca ptr, align 8
  %out.addr = alloca ptr, align 8
  %agg.tmp = alloca %"class.sat::literal", align 4
  %coerce.dive = getelementptr inbounds %"class.sat::literal", ptr %l, i32 0, i32 0
  store i32 %l.coerce, ptr %coerce.dive, align 4
  store ptr %this, ptr %this.addr, align 8
  store ptr %out, ptr %out.addr, align 8
  %this1 = load ptr, ptr %this.addr, align 8
  %0 = load ptr, ptr %out.addr, align 8
  call void @llvm.memcpy.p0.p0.i64(ptr align 4 %agg.tmp, ptr align 4 %l, i64 4, i1 false)
  %m_display_var = getelementptr inbounds %"struct.nlsat::solver::imp", ptr %this1, i32 0, i32 36
  %coerce.dive2 = getelementptr inbounds %"class.sat::literal", ptr %agg.tmp, i32 0, i32 0
  %1 = load i32, ptr %coerce.dive2, align 4
  %call = call noundef nonnull align 8 dereferenceable(8) ptr @_ZNK5nlsat6solver3imp12display_smt2ERSoN3sat7literalERKN10polynomial16display_var_procE(ptr noundef nonnull align 8 dereferenceable(728) %this1, ptr noundef nonnull align 8 dereferenceable(8) %0, i32 %1, ptr noundef nonnull align 8 dereferenceable(8) %m_display_var)
  ret ptr %call
}

; Function Attrs: mustprogress uwtable
define hidden noundef nonnull align 8 dereferenceable(8) ptr @_ZNK5nlsat6solver12display_smt2ERSoN3sat7literalE(ptr noundef nonnull align 8 dereferenceable(16) %this, ptr noundef nonnull align 8 dereferenceable(8) %out, i32 %l.coerce) #5 align 2 {
entry:
  %l = alloca %"class.sat::literal", align 4
  %this.addr = alloca ptr, align 8
  %out.addr = alloca ptr, align 8
  %agg.tmp = alloca %"class.sat::literal", align 4
  %coerce.dive = getelementptr inbounds %"class.sat::literal", ptr %l, i32 0, i32 0
  store i32 %l.coerce, ptr %coerce.dive, align 4
  store ptr %this, ptr %this.addr, align 8
  store ptr %out, ptr %out.addr, align 8
  %this1 = load ptr, ptr %this.addr, align 8
  %m_imp = getelementptr inbounds %"class.nlsat::solver", ptr %this1, i32 0, i32 0
  %0 = load ptr, ptr %m_imp, align 8
  %1 = load ptr, ptr %out.addr, align 8
  call void @llvm.memcpy.p0.p0.i64(ptr align 4 %agg.tmp, ptr align 4 %l, i64 4, i1 false)
  %coerce.dive2 = getelementptr inbounds %"class.sat::literal", ptr %agg.tmp, i32 0, i32 0
  %2 = load i32, ptr %coerce.dive2, align 4
  %call = call noundef nonnull align 8 dereferenceable(8) ptr @_ZNK5nlsat6solver3imp12display_smt2ERSoN3sat7literalE(ptr noundef nonnull align 8 dereferenceable(728) %0, ptr noundef nonnull align 8 dereferenceable(8) %1, i32 %2)
  ret ptr %call
}

; Function Attrs: mustprogress uwtable
define hidden noundef nonnull align 8 dereferenceable(8) ptr @_ZNK5nlsat6solver12display_smt2ERSojPKN3sat7literalE(ptr noundef nonnull align 8 dereferenceable(16) %this, ptr noundef nonnull align 8 dereferenceable(8) %out, i32 noundef %n, ptr noundef %ls) #5 align 2 {
entry:
  %this.addr = alloca ptr, align 8
  %out.addr = alloca ptr, align 8
  %n.addr = alloca i32, align 4
  %ls.addr = alloca ptr, align 8
  %i = alloca i32, align 4
  %agg.tmp = alloca %"class.sat::literal", align 4
  store ptr %this, ptr %this.addr, align 8
  store ptr %out, ptr %out.addr, align 8
  store i32 %n, ptr %n.addr, align 4
  store ptr %ls, ptr %ls.addr, align 8
  %this1 = load ptr, ptr %this.addr, align 8
  store i32 0, ptr %i, align 4
  br label %for.cond

for.cond:                                         ; preds = %for.inc, %entry
  %0 = load i32, ptr %i, align 4
  %1 = load i32, ptr %n.addr, align 4
  %cmp = icmp ult i32 %0, %1
  br i1 %cmp, label %for.body, label %for.end

for.body:                                         ; preds = %for.cond
  %2 = load ptr, ptr %out.addr, align 8
  %3 = load ptr, ptr %ls.addr, align 8
  %4 = load i32, ptr %i, align 4
  %idxprom = zext i32 %4 to i64
  %arrayidx = getelementptr inbounds %"class.sat::literal", ptr %3, i64 %idxprom
  call void @llvm.memcpy.p0.p0.i64(ptr align 4 %agg.tmp, ptr align 4 %arrayidx, i64 4, i1 false)
  %coerce.dive = getelementptr inbounds %"class.sat::literal", ptr %agg.tmp, i32 0, i32 0
  %5 = load i32, ptr %coerce.dive, align 4
  %call = call noundef nonnull align 8 dereferenceable(8) ptr @_ZNK5nlsat6solver12display_smt2ERSoN3sat7literalE(ptr noundef nonnull align 8 dereferenceable(16) %this1, ptr noundef nonnull align 8 dereferenceable(8) %2, i32 %5)
  %6 = load ptr, ptr %out.addr, align 8
  %call2 = call noundef nonnull align 8 dereferenceable(8) ptr @_ZStlsISt11char_traitsIcEERSt13basic_ostreamIcT_ES5_PKc(ptr noundef nonnull align 8 dereferenceable(8) %6, ptr noundef @.str.6)
  br label %for.inc

for.inc:                                          ; preds = %for.body
  %7 = load i32, ptr %i, align 4
  %inc = add i32 %7, 1
  store i32 %inc, ptr %i, align 4
  br label %for.cond, !llvm.loop !16

for.end:                                          ; preds = %for.cond
  %8 = load ptr, ptr %out.addr, align 8
  ret ptr %8
}