; Function Attrs: mustprogress uwtable
define hidden noundef nonnull align 8 dereferenceable(8) ptr @_ZNK5nlsat6solver12display_smt2ERSojPKN3sat7literalE(ptr nocapture noundef nonnull readonly align 8 dereferenceable(16) %this, ptr noundef nonnull returned align 8 dereferenceable(8) %out, i32 noundef %n, ptr nocapture noundef readonly %ls) local_unnamed_addr #4 align 2 {
entry:
  %cmp5.not = icmp eq i32 %n, 0
  br i1 %cmp5.not, label %for.end, label %for.body.preheader

for.body.preheader:                               ; preds = %entry
  %wide.trip.count = zext i32 %n to i64
  br label %for.body

for.body:                                         ; preds = %for.body.preheader, %for.body
  %indvars.iv = phi i64 [ 0, %for.body.preheader ], [ %indvars.iv.next, %for.body ]
  %arrayidx = getelementptr inbounds %"class.sat::literal", ptr %ls, i64 %indvars.iv
  %agg.tmp.sroa.0.0.copyload = load i32, ptr %arrayidx, align 4
  %0 = load ptr, ptr %this, align 8
  %m_display_var.i.i = getelementptr inbounds i8, ptr %0, i64 472
  %call.i.i = tail call noundef nonnull align 8 dereferenceable(8) ptr @_ZNK5nlsat6solver3imp12display_smt2ERSoN3sat7literalERKN10polynomial16display_var_procE(ptr noundef nonnull align 8 dereferenceable(728) %0, ptr noundef nonnull align 8 dereferenceable(8) %out, i32 %agg.tmp.sroa.0.0.copyload, ptr noundef nonnull align 8 dereferenceable(8) %m_display_var.i.i)
  %call2 = tail call noundef nonnull align 8 dereferenceable(8) ptr @_ZStlsISt11char_traitsIcEERSt13basic_ostreamIcT_ES5_PKc(ptr noundef nonnull align 8 dereferenceable(8) %out, ptr noundef nonnull @.str.6)
  %indvars.iv.next = add nuw nsw i64 %indvars.iv, 1
  %exitcond.not = icmp eq i64 %indvars.iv.next, %wide.trip.count
  br i1 %exitcond.not, label %for.end, label %for.body, !llvm.loop !29

for.end:                                          ; preds = %for.body, %entry
  ret ptr %out
}